target datalayout = "e-m:e-p270:32:32-p271:32:32-p272:64:64-i64:64-i128:128-f80:128-n8:16:32:64-S128"
target triple = "x86_64-pc-linux-gnu"

; Function Attrs: mustprogress nounwind uwtable
define noundef i32 @_ZN4YAML6detail13fp_formatting14ConvertToCharsEPcS2_mi(ptr noundef %0, ptr noundef %1, i64 noundef %2, i32 noundef %3) #0 {
  %5 = alloca i32, align 4
  %6 = alloca ptr, align 8
  %7 = alloca ptr, align 8
  %8 = alloca i64, align 8
  %9 = alloca i32, align 4
  %10 = alloca i32, align 4
  %11 = alloca i8, align 1
  store ptr %0, ptr %6, align 8, !tbaa !3
  store ptr %1, ptr %7, align 8, !tbaa !3
  store i64 %2, ptr %8, align 8, !tbaa !8
  store i32 %3, ptr %9, align 4, !tbaa !10
  %12 = load i32, ptr %9, align 4, !tbaa !10
  %13 = icmp slt i32 %12, 1
  br i1 %13, label %14, label %15

14:                                               ; preds = %4
  store i32 -1, ptr %5, align 4
  br label %80

15:                                               ; preds = %4
  %16 = load ptr, ptr %7, align 8, !tbaa !3
  %17 = load ptr, ptr %6, align 8, !tbaa !3
  %18 = icmp ult ptr %16, %17
  br i1 %18, label %19, label %20

19:                                               ; preds = %15
  store i32 -1, ptr %5, align 4
  br label %80

20:                                               ; preds = %15
  %21 = load ptr, ptr %7, align 8, !tbaa !3
  %22 = load ptr, ptr %6, align 8, !tbaa !3
  %23 = ptrtoint ptr %21 to i64
  %24 = ptrtoint ptr %22 to i64
  %25 = sub i64 %23, %24
  %26 = load i32, ptr %9, align 4, !tbaa !10
  %27 = sext i32 %26 to i64
  %28 = icmp slt i64 %25, %27
  br i1 %28, label %29, label %30

29:                                               ; preds = %20
  store i32 -1, ptr %5, align 4
  br label %80

30:                                               ; preds = %20
  %31 = load ptr, ptr %7, align 8, !tbaa !3
  %32 = load ptr, ptr %6, align 8, !tbaa !3
  %33 = ptrtoint ptr %31 to i64
  %34 = ptrtoint ptr %32 to i64
  %35 = sub i64 %33, %34
  %36 = icmp slt i64 %35, 20
  br i1 %36, label %37, label %38

37:                                               ; preds = %30
  store i32 -1, ptr %5, align 4
  br label %80

38:                                               ; preds = %30
  call void @llvm.lifetime.start.p0(i64 4, ptr %10) #15
  store i32 0, ptr %10, align 4, !tbaa !10
  br label %39

39:                                               ; preds = %42, %38
  %40 = load i64, ptr %8, align 8, !tbaa !8
  %41 = icmp ugt i64 %40, 0
  br i1 %41, label %42, label %57

42:                                               ; preds = %39
  call void @llvm.lifetime.start.p0(i64 1, ptr %11) #15
  %43 = load i64, ptr %8, align 8, !tbaa !8
  %44 = urem i64 %43, 10
  %45 = add i64 %44, 48
  %46 = trunc i64 %45 to i8
  store i8 %46, ptr %11, align 1, !tbaa !12
  %47 = load i64, ptr %8, align 8, !tbaa !8
  %48 = udiv i64 %47, 10
  store i64 %48, ptr %8, align 8, !tbaa !8
  %49 = load i32, ptr %10, align 4, !tbaa !10
  %50 = add nsw i32 %49, 1
  store i32 %50, ptr %10, align 4, !tbaa !10
  %51 = load i8, ptr %11, align 1, !tbaa !12
  %52 = load ptr, ptr %7, align 8, !tbaa !3
  %53 = load i32, ptr %10, align 4, !tbaa !10
  %54 = sext i32 %53 to i64
  %55 = sub i64 0, %54
  %56 = getelementptr inbounds i8, ptr %52, i64 %55
  store i8 %51, ptr %56, align 1, !tbaa !12
  call void @llvm.lifetime.end.p0(i64 1, ptr %11) #15
  br label %39, !llvm.loop !13

57:                                               ; preds = %39
  br label %58

58:                                               ; preds = %62, %57
  %59 = load i32, ptr %10, align 4, !tbaa !10
  %60 = load i32, ptr %9, align 4, !tbaa !10
  %61 = icmp slt i32 %59, %60
  br i1 %61, label %62, label %70

62:                                               ; preds = %58
  %63 = load i32, ptr %10, align 4, !tbaa !10
  %64 = add nsw i32 %63, 1
  store i32 %64, ptr %10, align 4, !tbaa !10
  %65 = load ptr, ptr %7, align 8, !tbaa !3
  %66 = load i32, ptr %10, align 4, !tbaa !10
  %67 = sext i32 %66 to i64
  %68 = sub i64 0, %67
  %69 = getelementptr inbounds i8, ptr %65, i64 %68
  store i8 48, ptr %69, align 1, !tbaa !12
  br label %58, !llvm.loop !15

70:                                               ; preds = %58
  %71 = load ptr, ptr %6, align 8, !tbaa !3
  %72 = load ptr, ptr %7, align 8, !tbaa !3
  %73 = load i32, ptr %10, align 4, !tbaa !10
  %74 = sext i32 %73 to i64
  %75 = sub i64 0, %74
  %76 = getelementptr inbounds i8, ptr %72, i64 %75
  %77 = load i32, ptr %10, align 4, !tbaa !10
  %78 = sext i32 %77 to i64
  call void @llvm.memmove.p0.p0.i64(ptr align 1 %71, ptr align 1 %76, i64 %78, i1 false)
  %79 = load i32, ptr %10, align 4, !tbaa !10
  store i32 %79, ptr %5, align 4
  call void @llvm.lifetime.end.p0(i64 4, ptr %10) #15
  br label %80

80:                                               ; preds = %70, %37, %29, %19, %14
  %81 = load i32, ptr %5, align 4
  ret i32 %81
}