; Function Attrs: mustprogress nofree norecurse nosync nounwind memory(argmem: readwrite) uwtable
define noundef range(i32 -1, -2147483648) i32 @_ZN4YAML6detail13fp_formatting14ConvertToCharsEPcS2_mi(ptr noundef %0, ptr noundef %1, i64 noundef %2, i32 noundef %3) local_unnamed_addr #0 {
  %5 = icmp slt i32 %3, 1
  %6 = icmp ult ptr %1, %0
  %or.cond = or i1 %6, %5
  br i1 %or.cond, label %31, label %7

7:                                                ; preds = %4
  %8 = ptrtoint ptr %1 to i64
  %9 = ptrtoint ptr %0 to i64
  %10 = sub i64 %8, %9
  %11 = zext nneg i32 %3 to i64
  %12 = icmp slt i64 %10, %11
  %13 = icmp slt i64 %10, 20
  %or.cond31 = or i1 %13, %12
  br i1 %or.cond31, label %31, label %.preheader32

.preheader32:                                     ; preds = %7
  %.not33 = icmp eq i64 %2, 0
  br i1 %.not33, label %.preheader, label %.lr.ph

.preheader.loopexit:                              ; preds = %.lr.ph
  %14 = trunc nuw nsw i64 %indvars.iv.next to i32
  br label %.preheader

.preheader:                                       ; preds = %.preheader.loopexit, %.preheader32
  %.025.lcssa = phi i32 [ 0, %.preheader32 ], [ %14, %.preheader.loopexit ]
  %15 = icmp slt i32 %.025.lcssa, %3
  %16 = zext nneg i32 %.025.lcssa to i64
  br i1 %15, label %.lr.ph37.preheader, label %._crit_edge

.lr.ph37.preheader:                               ; preds = %.preheader
  %17 = xor i64 %16, -1
  %18 = xor i32 %.025.lcssa, -1
  %19 = add i32 %3, %18
  %20 = zext i32 %19 to i64
  %21 = sub nuw nsw i64 %17, %20
  %scevgep = getelementptr i8, ptr %1, i64 %21
  %22 = add nuw nsw i64 %20, 1
  tail call void @llvm.memset.p0.i64(ptr noundef nonnull align 1 dereferenceable(1) %scevgep, i8 48, i64 %22, i1 false), !tbaa !3
  br label %._crit_edge

.lr.ph:                                           ; preds = %.preheader32, %.lr.ph
  %indvars.iv = phi i64 [ %indvars.iv.next, %.lr.ph ], [ 0, %.preheader32 ]
  %.02634 = phi i64 [ %26, %.lr.ph ], [ %2, %.preheader32 ]
  %23 = urem i64 %.02634, 10
  %24 = trunc nuw nsw i64 %23 to i8
  %25 = or disjoint i8 %24, 48
  %26 = udiv i64 %.02634, 10
  %indvars.iv.next = add nuw nsw i64 %indvars.iv, 1
  %27 = xor i64 %indvars.iv, -1
  %28 = getelementptr inbounds i8, ptr %1, i64 %27
  store i8 %25, ptr %28, align 1, !tbaa !3
  %.not = icmp ult i64 %.02634, 10
  br i1 %.not, label %.preheader.loopexit, label %.lr.ph, !llvm.loop !6

._crit_edge:                                      ; preds = %.lr.ph37.preheader, %.preheader
  %.pre-phi = phi i64 [ %16, %.preheader ], [ %11, %.lr.ph37.preheader ]
  %.1.lcssa = phi i32 [ %.025.lcssa, %.preheader ], [ %3, %.lr.ph37.preheader ]
  %29 = sub nsw i64 0, %.pre-phi
  %30 = getelementptr inbounds i8, ptr %1, i64 %29
  tail call void @llvm.memmove.p0.p0.i64(ptr align 1 %0, ptr align 1 %30, i64 %.pre-phi, i1 false)
  br label %31

31:                                               ; preds = %7, %4, %._crit_edge
  %.0 = phi i32 [ %.1.lcssa, %._crit_edge ], [ -1, %4 ], [ -1, %7 ]
  ret i32 %.0
}